; Function Attrs: nounwind uwtable
define internal fastcc noundef ptr @_readIndexElem() unnamed_addr #0 {
  %1 = alloca i32, align 4
  %2 = tail call noundef ptr @palloc0(i64 noundef 64) #10
  store i32 92, ptr %2, align 4
  call void @llvm.lifetime.start.p0(i64 4, ptr nonnull %1) #10
  %3 = call ptr @pg_strtok(ptr noundef nonnull %1) #10
  %4 = call ptr @pg_strtok(ptr noundef nonnull %1) #10
  %5 = load i32, ptr %1, align 4
  switch i32 %5, label %15 [
    i32 0, label %nullable_string.exit
    i32 2, label %6
  ]

6:                                                ; preds = %0
  %7 = load i8, ptr %4, align 1
  %8 = icmp eq i8 %7, 34
  br i1 %8, label %9, label %15

9:                                                ; preds = %6
  %10 = getelementptr inbounds nuw i8, ptr %4, i64 1
  %11 = load i8, ptr %10, align 1
  %12 = icmp eq i8 %11, 34
  br i1 %12, label %13, label %15

13:                                               ; preds = %9
  %14 = call ptr @pstrdup(ptr noundef nonnull @.str.326) #10
  br label %nullable_string.exit

15:                                               ; preds = %9, %6, %0
  %16 = call ptr @debackslash(ptr noundef %4, i32 noundef %5) #10
  br label %nullable_string.exit

nullable_string.exit:                             ; preds = %0, %13, %15
  %.0.i = phi ptr [ %14, %13 ], [ %16, %15 ], [ null, %0 ]
  %17 = getelementptr inbounds nuw i8, ptr %2, i64 8
  store ptr %.0.i, ptr %17, align 8
  %18 = call ptr @pg_strtok(ptr noundef nonnull %1) #10
  %19 = call ptr @nodeRead(ptr noundef null, i32 noundef 0) #10
  %20 = getelementptr inbounds nuw i8, ptr %2, i64 16
  store ptr %19, ptr %20, align 8
  %21 = call ptr @pg_strtok(ptr noundef nonnull %1) #10
  %22 = call ptr @pg_strtok(ptr noundef nonnull %1) #10
  %23 = load i32, ptr %1, align 4
  switch i32 %23, label %33 [
    i32 0, label %nullable_string.exit14
    i32 2, label %24
  ]

24:                                               ; preds = %nullable_string.exit
  %25 = load i8, ptr %22, align 1
  %26 = icmp eq i8 %25, 34
  br i1 %26, label %27, label %33

27:                                               ; preds = %24
  %28 = getelementptr inbounds nuw i8, ptr %22, i64 1
  %29 = load i8, ptr %28, align 1
  %30 = icmp eq i8 %29, 34
  br i1 %30, label %31, label %33

31:                                               ; preds = %27
  %32 = call ptr @pstrdup(ptr noundef nonnull @.str.326) #10
  br label %nullable_string.exit14

33:                                               ; preds = %27, %24, %nullable_string.exit
  %34 = call ptr @debackslash(ptr noundef %22, i32 noundef %23) #10
  br label %nullable_string.exit14

nullable_string.exit14:                           ; preds = %nullable_string.exit, %31, %33
  %.0.i13 = phi ptr [ %32, %31 ], [ %34, %33 ], [ null, %nullable_string.exit ]
  %35 = getelementptr inbounds nuw i8, ptr %2, i64 24
  store ptr %.0.i13, ptr %35, align 8
  %36 = call ptr @pg_strtok(ptr noundef nonnull %1) #10
  %37 = call ptr @nodeRead(ptr noundef null, i32 noundef 0) #10
  %38 = getelementptr inbounds nuw i8, ptr %2, i64 32
  store ptr %37, ptr %38, align 8
  %39 = call ptr @pg_strtok(ptr noundef nonnull %1) #10
  %40 = call ptr @nodeRead(ptr noundef null, i32 noundef 0) #10
  %41 = getelementptr inbounds nuw i8, ptr %2, i64 40
  store ptr %40, ptr %41, align 8
  %42 = call ptr @pg_strtok(ptr noundef nonnull %1) #10
  %43 = call ptr @nodeRead(ptr noundef null, i32 noundef 0) #10
  %44 = getelementptr inbounds nuw i8, ptr %2, i64 48
  store ptr %43, ptr %44, align 8
  %45 = call ptr @pg_strtok(ptr noundef nonnull %1) #10
  %46 = call ptr @pg_strtok(ptr noundef nonnull %1) #10
  %47 = call i64 @strtol(ptr noundef nonnull captures(none) %46, ptr noundef null, i32 noundef 10) #10
  %48 = trunc i64 %47 to i32
  %49 = getelementptr inbounds nuw i8, ptr %2, i64 56
  store i32 %48, ptr %49, align 8
  %50 = call ptr @pg_strtok(ptr noundef nonnull %1) #10
  %51 = call ptr @pg_strtok(ptr noundef nonnull %1) #10
  %52 = call i64 @strtol(ptr noundef nonnull captures(none) %51, ptr noundef null, i32 noundef 10) #10
  %53 = trunc i64 %52 to i32
  %54 = getelementptr inbounds nuw i8, ptr %2, i64 60
  store i32 %53, ptr %54, align 4
  call void @llvm.lifetime.end.p0(i64 4, ptr nonnull %1) #10
  ret ptr %2
}